#include <math.h>
#include <stdio.h>
#include <stdlib.h>
#include <string.h>


main()
{
      int m,n,i,j,k,a[100000]={0};
      char s[100000]={'\0'};
      scanf("%d",&n);
      
      for(i=0;i<n;i++)
      {for(int xunhuan=0;xunhuan<100000;xunhuan++)
       s[xunhuan]='\0';
       for(int xunhuan=0;xunhuan<100000;xunhuan++)
       a[xunhuan]=0;
       scanf("%s",s);
       int nei=0;
       while(nei<100000)
       {if(s[nei+1]=='\0')
        {m=nei;
         break;}
        nei++;}      
        
        for(j=0;j<=m;j++)
        {for(k=0;k<=m;k++)
         {if(s[j]==s[k])
          a[j]++;
          }}

       for(j=0;j<=m;j++)
       {if(a[j]==1)
        {printf("%c\n",s[j]);
         break;}
        if(j==m&&a[m]!=1)
        printf("no\n");
        }}

        }