; ModuleID = '37/1730.c'
source_filename = "37/1730.c"
target datalayout = "e-m:e-p270:32:32-p271:32:32-p272:64:64-i64:64-f80:128-n8:16:32:64-S128"
target triple = "x86_64-pc-linux-gnu"

@.str = private unnamed_addr constant [3 x i8] c"%d\00", align 1
@.str.1 = private unnamed_addr constant [3 x i8] c"%s\00", align 1
@.str.2 = private unnamed_addr constant [4 x i8] c"%c\0A\00", align 1
@.str.3 = private unnamed_addr constant [4 x i8] c"no\0A\00", align 1

; Function Attrs: noinline nounwind uwtable
define dso_local i32 @main() #0 {
  %1 = alloca i32, align 4
  %2 = alloca i32, align 4
  %3 = alloca i32, align 4
  %4 = alloca i32, align 4
  %5 = alloca i32, align 4
  %6 = alloca i32, align 4
  %7 = alloca [100000 x i32], align 16
  %8 = alloca [100000 x i8], align 16
  %9 = alloca i32, align 4
  %10 = alloca i32, align 4
  %11 = alloca i32, align 4
  store i32 0, i32* %1, align 4
  %12 = bitcast [100000 x i32]* %7 to i8*
  call void @llvm.memset.p0i8.i64(i8* align 16 %12, i8 0, i64 400000, i1 false)
  %13 = bitcast [100000 x i8]* %8 to i8*
  call void @llvm.memset.p0i8.i64(i8* align 16 %13, i8 0, i64 100000, i1 false)
  %14 = call i32 (i8*, ...) @__isoc99_scanf(i8* getelementptr inbounds ([3 x i8], [3 x i8]* @.str, i64 0, i64 0), i32* %3)
  store i32 0, i32* %4, align 4
  br label %15

15:                                               ; preds = %131, %0
  %16 = load i32, i32* %4, align 4
  %17 = load i32, i32* %3, align 4
  %18 = icmp slt i32 %16, %17
  br i1 %18, label %19, label %134

19:                                               ; preds = %15
  store i32 0, i32* %9, align 4
  br label %20

20:                                               ; preds = %27, %19
  %21 = load i32, i32* %9, align 4
  %22 = icmp slt i32 %21, 100000
  br i1 %22, label %23, label %30

23:                                               ; preds = %20
  %24 = load i32, i32* %9, align 4
  %25 = sext i32 %24 to i64
  %26 = getelementptr inbounds [100000 x i8], [100000 x i8]* %8, i64 0, i64 %25
  store i8 0, i8* %26, align 1
  br label %27

27:                                               ; preds = %23
  %28 = load i32, i32* %9, align 4
  %29 = add nsw i32 %28, 1
  store i32 %29, i32* %9, align 4
  br label %20

30:                                               ; preds = %20
  store i32 0, i32* %10, align 4
  br label %31

31:                                               ; preds = %38, %30
  %32 = load i32, i32* %10, align 4
  %33 = icmp slt i32 %32, 100000
  br i1 %33, label %34, label %41

34:                                               ; preds = %31
  %35 = load i32, i32* %10, align 4
  %36 = sext i32 %35 to i64
  %37 = getelementptr inbounds [100000 x i32], [100000 x i32]* %7, i64 0, i64 %36
  store i32 0, i32* %37, align 4
  br label %38

38:                                               ; preds = %34
  %39 = load i32, i32* %10, align 4
  %40 = add nsw i32 %39, 1
  store i32 %40, i32* %10, align 4
  br label %31

41:                                               ; preds = %31
  %42 = getelementptr inbounds [100000 x i8], [100000 x i8]* %8, i64 0, i64 0
  %43 = call i32 (i8*, ...) @__isoc99_scanf(i8* getelementptr inbounds ([3 x i8], [3 x i8]* @.str.1, i64 0, i64 0), i8* %42)
  store i32 0, i32* %11, align 4
  br label %44

44:                                               ; preds = %57, %41
  %45 = load i32, i32* %11, align 4
  %46 = icmp slt i32 %45, 100000
  br i1 %46, label %47, label %60

47:                                               ; preds = %44
  %48 = load i32, i32* %11, align 4
  %49 = add nsw i32 %48, 1
  %50 = sext i32 %49 to i64
  %51 = getelementptr inbounds [100000 x i8], [100000 x i8]* %8, i64 0, i64 %50
  %52 = load i8, i8* %51, align 1
  %53 = sext i8 %52 to i32
  %54 = icmp eq i32 %53, 0
  br i1 %54, label %55, label %57

55:                                               ; preds = %47
  %56 = load i32, i32* %11, align 4
  store i32 %56, i32* %2, align 4
  br label %60

57:                                               ; preds = %47
  %58 = load i32, i32* %11, align 4
  %59 = add nsw i32 %58, 1
  store i32 %59, i32* %11, align 4
  br label %44

60:                                               ; preds = %55, %44
  store i32 0, i32* %5, align 4
  br label %61

61:                                               ; preds = %93, %60
  %62 = load i32, i32* %5, align 4
  %63 = load i32, i32* %2, align 4
  %64 = icmp sle i32 %62, %63
  br i1 %64, label %65, label %96

65:                                               ; preds = %61
  store i32 0, i32* %6, align 4
  br label %66

66:                                               ; preds = %89, %65
  %67 = load i32, i32* %6, align 4
  %68 = load i32, i32* %2, align 4
  %69 = icmp sle i32 %67, %68
  br i1 %69, label %70, label %92

70:                                               ; preds = %66
  %71 = load i32, i32* %5, align 4
  %72 = sext i32 %71 to i64
  %73 = getelementptr inbounds [100000 x i8], [100000 x i8]* %8, i64 0, i64 %72
  %74 = load i8, i8* %73, align 1
  %75 = sext i8 %74 to i32
  %76 = load i32, i32* %6, align 4
  %77 = sext i32 %76 to i64
  %78 = getelementptr inbounds [100000 x i8], [100000 x i8]* %8, i64 0, i64 %77
  %79 = load i8, i8* %78, align 1
  %80 = sext i8 %79 to i32
  %81 = icmp eq i32 %75, %80
  br i1 %81, label %82, label %88

82:                                               ; preds = %70
  %83 = load i32, i32* %5, align 4
  %84 = sext i32 %83 to i64
  %85 = getelementptr inbounds [100000 x i32], [100000 x i32]* %7, i64 0, i64 %84
  %86 = load i32, i32* %85, align 4
  %87 = add nsw i32 %86, 1
  store i32 %87, i32* %85, align 4
  br label %88

88:                                               ; preds = %82, %70
  br label %89

89:                                               ; preds = %88
  %90 = load i32, i32* %6, align 4
  %91 = add nsw i32 %90, 1
  store i32 %91, i32* %6, align 4
  br label %66

92:                                               ; preds = %66
  br label %93

93:                                               ; preds = %92
  %94 = load i32, i32* %5, align 4
  %95 = add nsw i32 %94, 1
  store i32 %95, i32* %5, align 4
  br label %61

96:                                               ; preds = %61
  store i32 0, i32* %5, align 4
  br label %97

97:                                               ; preds = %127, %96
  %98 = load i32, i32* %5, align 4
  %99 = load i32, i32* %2, align 4
  %100 = icmp sle i32 %98, %99
  br i1 %100, label %101, label %130

101:                                              ; preds = %97
  %102 = load i32, i32* %5, align 4
  %103 = sext i32 %102 to i64
  %104 = getelementptr inbounds [100000 x i32], [100000 x i32]* %7, i64 0, i64 %103
  %105 = load i32, i32* %104, align 4
  %106 = icmp eq i32 %105, 1
  br i1 %106, label %107, label %114

107:                                              ; preds = %101
  %108 = load i32, i32* %5, align 4
  %109 = sext i32 %108 to i64
  %110 = getelementptr inbounds [100000 x i8], [100000 x i8]* %8, i64 0, i64 %109
  %111 = load i8, i8* %110, align 1
  %112 = sext i8 %111 to i32
  %113 = call i32 (i8*, ...) @printf(i8* getelementptr inbounds ([4 x i8], [4 x i8]* @.str.2, i64 0, i64 0), i32 %112)
  br label %130

114:                                              ; preds = %101
  %115 = load i32, i32* %5, align 4
  %116 = load i32, i32* %2, align 4
  %117 = icmp eq i32 %115, %116
  br i1 %117, label %118, label %126

118:                                              ; preds = %114
  %119 = load i32, i32* %2, align 4
  %120 = sext i32 %119 to i64
  %121 = getelementptr inbounds [100000 x i32], [100000 x i32]* %7, i64 0, i64 %120
  %122 = load i32, i32* %121, align 4
  %123 = icmp ne i32 %122, 1
  br i1 %123, label %124, label %126

124:                                              ; preds = %118
  %125 = call i32 (i8*, ...) @printf(i8* getelementptr inbounds ([4 x i8], [4 x i8]* @.str.3, i64 0, i64 0))
  br label %126

126:                                              ; preds = %124, %118, %114
  br label %127

127:                                              ; preds = %126
  %128 = load i32, i32* %5, align 4
  %129 = add nsw i32 %128, 1
  store i32 %129, i32* %5, align 4
  br label %97

130:                                              ; preds = %107, %97
  br label %131

131:                                              ; preds = %130
  %132 = load i32, i32* %4, align 4
  %133 = add nsw i32 %132, 1
  store i32 %133, i32* %4, align 4
  br label %15

134:                                              ; preds = %15
  %135 = load i32, i32* %1, align 4
  ret i32 %135
}

; Function Attrs: argmemonly nounwind willreturn
declare void @llvm.memset.p0i8.i64(i8* nocapture writeonly, i8, i64, i1 immarg) #1

declare dso_local i32 @__isoc99_scanf(i8*, ...) #2

declare dso_local i32 @printf(i8*, ...) #2


!llvm.module.flags = !{!0}
!llvm.ident = !{!1}

!0 = !{i32 1, !"wchar_size", i32 4}
!1 = !{!"clang version 10.0.0-4ubuntu1 "}
